; Function Attrs: nounwind uwtable
define void @dt_film_cleanup(ptr noundef %0) local_unnamed_addr #0 {
  %2 = getelementptr inbounds nuw i8, ptr %0, i64 520
  %3 = tail call i32 @pthread_mutex_destroy(ptr noundef nonnull %2) #11
  %4 = getelementptr inbounds nuw i8, ptr %0, i64 560
  %5 = load ptr, ptr %4, align 8, !tbaa !15
  %.not = icmp eq ptr %5, null
  br i1 %.not, label %7, label %6

6:                                                ; preds = %1
  tail call void @g_dir_close(ptr noundef nonnull %5) #11
  store ptr null, ptr %4, align 8, !tbaa !15
  br label %7

7:                                                ; preds = %6, %1
  ret void
}